target datalayout = "e-m:e-p270:32:32-p271:32:32-p272:64:64-i64:64-i128:128-f80:128-n8:16:32:64-S128"
target triple = "x86_64-pc-linux-gnu"

%struct.Wlc_Prs_t_ = type { i32, ptr, ptr, ptr, ptr, ptr, ptr, ptr, ptr, ptr, i32, [4 x i32], [4 x i32], [4 x i32], [10000 x i8] }
%struct.Vec_Int_t_ = type { i32, i32, ptr }

@.str.10 = private unnamed_addr constant [10 x i8] c"endmodule\00", align 1
@.str.11 = private unnamed_addr constant [7 x i8] c"module\00", align 1
@.str.12 = private unnamed_addr constant [2 x i8] c"\0A\00", align 1
@.str.13 = private unnamed_addr constant [5 x i8] c"    \00", align 1
@.str.14 = private unnamed_addr constant [3 x i8] c"%c\00", align 1
@.str.15 = private unnamed_addr constant [3 x i8] c";\0A\00", align 1

; Function Attrs: nounwind uwtable
define internal void @Vec_IntGrow(ptr noundef %0, i32 noundef %1) #0 {
  %3 = alloca ptr, align 8
  %4 = alloca i32, align 4
  store ptr %0, ptr %3, align 8
  store i32 %1, ptr %4, align 4
  %5 = load ptr, ptr %3, align 8
  %6 = getelementptr inbounds %struct.Vec_Int_t_, ptr %5, i32 0, i32 0
  %7 = load i32, ptr %6, align 8
  %8 = load i32, ptr %4, align 4
  %9 = icmp sge i32 %7, %8
  br i1 %9, label %10, label %11

10:                                               ; preds = %2
  br label %36

11:                                               ; preds = %2
  %12 = load ptr, ptr %3, align 8
  %13 = getelementptr inbounds %struct.Vec_Int_t_, ptr %12, i32 0, i32 2
  %14 = load ptr, ptr %13, align 8
  %15 = icmp ne ptr %14, null
  br i1 %15, label %16, label %24

16:                                               ; preds = %11
  %17 = load ptr, ptr %3, align 8
  %18 = getelementptr inbounds %struct.Vec_Int_t_, ptr %17, i32 0, i32 2
  %19 = load ptr, ptr %18, align 8
  %20 = load i32, ptr %4, align 4
  %21 = sext i32 %20 to i64
  %22 = mul i64 4, %21
  %23 = call ptr @realloc(ptr noundef %19, i64 noundef %22) #14
  br label %29

24:                                               ; preds = %11
  %25 = load i32, ptr %4, align 4
  %26 = sext i32 %25 to i64
  %27 = mul i64 4, %26
  %28 = call noalias ptr @malloc(i64 noundef %27) #12
  br label %29

29:                                               ; preds = %24, %16
  %30 = phi ptr [ %23, %16 ], [ %28, %24 ]
  %31 = load ptr, ptr %3, align 8
  %32 = getelementptr inbounds %struct.Vec_Int_t_, ptr %31, i32 0, i32 2
  store ptr %30, ptr %32, align 8
  %33 = load i32, ptr %4, align 4
  %34 = load ptr, ptr %3, align 8
  %35 = getelementptr inbounds %struct.Vec_Int_t_, ptr %34, i32 0, i32 0
  store i32 %33, ptr %35, align 8
  br label %36

36:                                               ; preds = %29, %10
  ret void
}

; Function Attrs: nounwind uwtable
define internal i32 @Wlc_PrsStrCmp(ptr noundef %0, ptr noundef %1) #0 {
  %3 = alloca ptr, align 8
  %4 = alloca ptr, align 8
  store ptr %0, ptr %3, align 8
  store ptr %1, ptr %4, align 8
  %5 = load ptr, ptr %3, align 8
  %6 = load ptr, ptr %4, align 8
  %7 = load ptr, ptr %4, align 8
  %8 = call i64 @strlen(ptr noundef %7) #11
  %9 = call i32 @strncmp(ptr noundef %5, ptr noundef %6, i64 noundef %8) #11
  %10 = icmp ne i32 %9, 0
  %11 = xor i1 %10, true
  %12 = zext i1 %11 to i32
  ret i32 %12
}

; Function Attrs: nounwind uwtable
define internal ptr @Wlc_PrsStr(ptr noundef %0, i32 noundef %1) #0 {
  %3 = alloca ptr, align 8
  %4 = alloca i32, align 4
  store ptr %0, ptr %3, align 8
  store i32 %1, ptr %4, align 4
  %5 = load ptr, ptr %3, align 8
  %6 = getelementptr inbounds %struct.Wlc_Prs_t_, ptr %5, i32 0, i32 2
  %7 = load ptr, ptr %6, align 8
  %8 = load i32, ptr %4, align 4
  %9 = sext i32 %8 to i64
  %10 = getelementptr inbounds i8, ptr %7, i64 %9
  ret ptr %10
}

; Function Attrs: nounwind uwtable
define internal i32 @Vec_IntEntry(ptr noundef %0, i32 noundef %1) #0 {
  %3 = alloca ptr, align 8
  %4 = alloca i32, align 4
  store ptr %0, ptr %3, align 8
  store i32 %1, ptr %4, align 4
  %5 = load ptr, ptr %3, align 8
  %6 = getelementptr inbounds %struct.Vec_Int_t_, ptr %5, i32 0, i32 2
  %7 = load ptr, ptr %6, align 8
  %8 = load i32, ptr %4, align 4
  %9 = sext i32 %8 to i64
  %10 = getelementptr inbounds i32, ptr %7, i64 %9
  %11 = load i32, ptr %10, align 4
  ret i32 %11
}

; Function Attrs: nounwind uwtable
define internal i32 @Vec_IntSize(ptr noundef %0) #0 {
  %2 = alloca ptr, align 8
  store ptr %0, ptr %2, align 8
  %3 = load ptr, ptr %2, align 8
  %4 = getelementptr inbounds %struct.Vec_Int_t_, ptr %3, i32 0, i32 1
  %5 = load i32, ptr %4, align 4
  ret i32 %5
}

; Function Attrs: nounwind uwtable
define internal i32 @Wlc_PrsOffset(ptr noundef %0, ptr noundef %1) #0 {
  %3 = alloca ptr, align 8
  %4 = alloca ptr, align 8
  store ptr %0, ptr %3, align 8
  store ptr %1, ptr %4, align 8
  %5 = load ptr, ptr %4, align 8
  %6 = load ptr, ptr %3, align 8
  %7 = getelementptr inbounds %struct.Wlc_Prs_t_, ptr %6, i32 0, i32 2
  %8 = load ptr, ptr %7, align 8
  %9 = ptrtoint ptr %5 to i64
  %10 = ptrtoint ptr %8 to i64
  %11 = sub i64 %9, %10
  %12 = trunc i64 %11 to i32
  ret i32 %12
}

; Function Attrs: nounwind uwtable
define internal ptr @Wlc_PrsSkipSpaces(ptr noundef %0) #0 {
  %2 = alloca ptr, align 8
  store ptr %0, ptr %2, align 8
  br label %3

3:                                                ; preds = %15, %1
  %4 = load ptr, ptr %2, align 8
  %5 = load i8, ptr %4, align 1
  %6 = sext i8 %5 to i32
  %7 = icmp ne i32 %6, 0
  br i1 %7, label %8, label %13

8:                                                ; preds = %3
  %9 = load ptr, ptr %2, align 8
  %10 = load i8, ptr %9, align 1
  %11 = sext i8 %10 to i32
  %12 = icmp eq i32 %11, 32
  br label %13

13:                                               ; preds = %8, %3
  %14 = phi i1 [ false, %3 ], [ %12, %8 ]
  br i1 %14, label %15, label %18

15:                                               ; preds = %13
  %16 = load ptr, ptr %2, align 8
  %17 = getelementptr inbounds i8, ptr %16, i32 1
  store ptr %17, ptr %2, align 8
  br label %3, !llvm.loop !19

18:                                               ; preds = %13
  %19 = load ptr, ptr %2, align 8
  ret ptr %19
}

; Function Attrs: nounwind uwtable
define internal void @Vec_IntPush(ptr noundef %0, i32 noundef %1) #0 {
  %3 = alloca ptr, align 8
  %4 = alloca i32, align 4
  store ptr %0, ptr %3, align 8
  store i32 %1, ptr %4, align 4
  %5 = load ptr, ptr %3, align 8
  %6 = getelementptr inbounds %struct.Vec_Int_t_, ptr %5, i32 0, i32 1
  %7 = load i32, ptr %6, align 4
  %8 = load ptr, ptr %3, align 8
  %9 = getelementptr inbounds %struct.Vec_Int_t_, ptr %8, i32 0, i32 0
  %10 = load i32, ptr %9, align 8
  %11 = icmp eq i32 %7, %10
  br i1 %11, label %12, label %26

12:                                               ; preds = %2
  %13 = load ptr, ptr %3, align 8
  %14 = getelementptr inbounds %struct.Vec_Int_t_, ptr %13, i32 0, i32 0
  %15 = load i32, ptr %14, align 8
  %16 = icmp slt i32 %15, 16
  br i1 %16, label %17, label %19

17:                                               ; preds = %12
  %18 = load ptr, ptr %3, align 8
  call void @Vec_IntGrow(ptr noundef %18, i32 noundef 16)
  br label %25

19:                                               ; preds = %12
  %20 = load ptr, ptr %3, align 8
  %21 = load ptr, ptr %3, align 8
  %22 = getelementptr inbounds %struct.Vec_Int_t_, ptr %21, i32 0, i32 0
  %23 = load i32, ptr %22, align 8
  %24 = mul nsw i32 2, %23
  call void @Vec_IntGrow(ptr noundef %20, i32 noundef %24)
  br label %25

25:                                               ; preds = %19, %17
  br label %26

26:                                               ; preds = %25, %2
  %27 = load i32, ptr %4, align 4
  %28 = load ptr, ptr %3, align 8
  %29 = getelementptr inbounds %struct.Vec_Int_t_, ptr %28, i32 0, i32 2
  %30 = load ptr, ptr %29, align 8
  %31 = load ptr, ptr %3, align 8
  %32 = getelementptr inbounds %struct.Vec_Int_t_, ptr %31, i32 0, i32 1
  %33 = load i32, ptr %32, align 4
  %34 = add nsw i32 %33, 1
  store i32 %34, ptr %32, align 4
  %35 = sext i32 %33 to i64
  %36 = getelementptr inbounds i32, ptr %30, i64 %35
  store i32 %27, ptr %36, align 4
  ret void
}

; Function Attrs: nounwind uwtable
define i32 @Wlc_PrsPrepare(ptr noundef %0) #0 {
  %2 = alloca i32, align 4
  %3 = alloca ptr, align 8
  %4 = alloca i32, align 4
  %5 = alloca i32, align 4
  %6 = alloca ptr, align 8
  %7 = alloca ptr, align 8
  %8 = alloca ptr, align 8
  %9 = alloca i32, align 4
  %10 = alloca i32, align 4
  store ptr %0, ptr %3, align 8
  store i32 0, ptr %4, align 4
  store i32 1, ptr %5, align 4
  %11 = load ptr, ptr %3, align 8
  %12 = getelementptr inbounds %struct.Wlc_Prs_t_, ptr %11, i32 0, i32 2
  %13 = load ptr, ptr %12, align 8
  store ptr %13, ptr %6, align 8
  br label %14

14:                                               ; preds = %36, %1
  %15 = load ptr, ptr %6, align 8
  %16 = load i8, ptr %15, align 1
  %17 = icmp ne i8 %16, 0
  br i1 %17, label %18, label %39

18:                                               ; preds = %14
  %19 = load ptr, ptr %6, align 8
  %20 = load i8, ptr %19, align 1
  %21 = sext i8 %20 to i32
  %22 = icmp eq i32 %21, 10
  br i1 %22, label %23, label %35

23:                                               ; preds = %18
  %24 = load ptr, ptr %3, align 8
  %25 = getelementptr inbounds %struct.Wlc_Prs_t_, ptr %24, i32 0, i32 3
  %26 = load ptr, ptr %25, align 8
  %27 = load ptr, ptr %6, align 8
  %28 = load ptr, ptr %3, align 8
  %29 = getelementptr inbounds %struct.Wlc_Prs_t_, ptr %28, i32 0, i32 2
  %30 = load ptr, ptr %29, align 8
  %31 = ptrtoint ptr %27 to i64
  %32 = ptrtoint ptr %30 to i64
  %33 = sub i64 %31, %32
  %34 = trunc i64 %33 to i32
  call void @Vec_IntPush(ptr noundef %26, i32 noundef %34)
  br label %35

35:                                               ; preds = %23, %18
  br label %36

36:                                               ; preds = %35
  %37 = load ptr, ptr %6, align 8
  %38 = getelementptr inbounds i8, ptr %37, i32 1
  store ptr %38, ptr %6, align 8
  br label %14, !llvm.loop !15

39:                                               ; preds = %14
  %40 = load ptr, ptr %3, align 8
  %41 = call i32 @Wlc_PrsRemoveComments(ptr noundef %40)
  %42 = icmp ne i32 %41, 0
  br i1 %42, label %44, label %43

43:                                               ; preds = %39
  store i32 0, ptr %2, align 4
  br label %178

44:                                               ; preds = %39
  %45 = load ptr, ptr %3, align 8
  %46 = getelementptr inbounds %struct.Wlc_Prs_t_, ptr %45, i32 0, i32 2
  %47 = load ptr, ptr %46, align 8
  store ptr %47, ptr %8, align 8
  store ptr %47, ptr %7, align 8
  br label %48

48:                                               ; preds = %88, %44
  %49 = load ptr, ptr %8, align 8
  %50 = load i8, ptr %49, align 1
  %51 = icmp ne i8 %50, 0
  br i1 %51, label %52, label %91

52:                                               ; preds = %48
  %53 = load i32, ptr %5, align 4
  %54 = icmp ne i32 %53, 0
  br i1 %54, label %55, label %71

55:                                               ; preds = %52
  %56 = load ptr, ptr %8, align 8
  %57 = load i8, ptr %56, align 1
  %58 = sext i8 %57 to i32
  %59 = icmp eq i32 %58, 59
  br i1 %59, label %60, label %71

60:                                               ; preds = %55
  %61 = load ptr, ptr %8, align 8
  store i8 0, ptr %61, align 1
  %62 = load ptr, ptr %3, align 8
  %63 = getelementptr inbounds %struct.Wlc_Prs_t_, ptr %62, i32 0, i32 4
  %64 = load ptr, ptr %63, align 8
  %65 = load ptr, ptr %3, align 8
  %66 = load ptr, ptr %7, align 8
  %67 = call ptr @Wlc_PrsSkipSpaces(ptr noundef %66)
  %68 = call i32 @Wlc_PrsOffset(ptr noundef %65, ptr noundef %67)
  call void @Vec_IntPush(ptr noundef %64, i32 noundef %68)
  %69 = load ptr, ptr %8, align 8
  %70 = getelementptr inbounds i8, ptr %69, i64 1
  store ptr %70, ptr %7, align 8
  br label %71

71:                                               ; preds = %60, %55, %52
  %72 = load ptr, ptr %8, align 8
  %73 = load i8, ptr %72, align 1
  %74 = sext i8 %73 to i32
  %75 = icmp eq i32 %74, 92
  br i1 %75, label %76, label %77

76:                                               ; preds = %71
  store i32 0, ptr %5, align 4
  br label %87

77:                                               ; preds = %71
  %78 = load i32, ptr %5, align 4
  %79 = icmp ne i32 %78, 0
  br i1 %79, label %86, label %80

80:                                               ; preds = %77
  %81 = load ptr, ptr %8, align 8
  %82 = load i8, ptr %81, align 1
  %83 = sext i8 %82 to i32
  %84 = icmp eq i32 %83, 32
  br i1 %84, label %85, label %86

85:                                               ; preds = %80
  store i32 1, ptr %5, align 4
  br label %86

86:                                               ; preds = %85, %80, %77
  br label %87

87:                                               ; preds = %86, %76
  br label %88

88:                                               ; preds = %87
  %89 = load ptr, ptr %8, align 8
  %90 = getelementptr inbounds i8, ptr %89, i32 1
  store ptr %90, ptr %8, align 8
  br label %48, !llvm.loop !16

91:                                               ; preds = %48
  %92 = load i32, ptr %4, align 4
  %93 = icmp ne i32 %92, 0
  br i1 %93, label %94, label %177

94:                                               ; preds = %91
  store i32 0, ptr %9, align 4
  br label %95

95:                                               ; preds = %173, %94
  %96 = load i32, ptr %9, align 4
  %97 = load ptr, ptr %3, align 8
  %98 = getelementptr inbounds %struct.Wlc_Prs_t_, ptr %97, i32 0, i32 4
  %99 = load ptr, ptr %98, align 8
  %100 = call i32 @Vec_IntSize(ptr noundef %99)
  %101 = icmp slt i32 %96, %100
  br i1 %101, label %102, label %111

102:                                              ; preds = %95
  %103 = load ptr, ptr %3, align 8
  %104 = load ptr, ptr %3, align 8
  %105 = getelementptr inbounds %struct.Wlc_Prs_t_, ptr %104, i32 0, i32 4
  %106 = load ptr, ptr %105, align 8
  %107 = load i32, ptr %9, align 4
  %108 = call i32 @Vec_IntEntry(ptr noundef %106, i32 noundef %107)
  %109 = call ptr @Wlc_PrsStr(ptr noundef %103, i32 noundef %108)
  store ptr %109, ptr %6, align 8
  %110 = icmp ne ptr %109, null
  br label %111

111:                                              ; preds = %102, %95
  %112 = phi i1 [ false, %95 ], [ %110, %102 ]
  br i1 %112, label %113, label %176

113:                                              ; preds = %111
  %114 = load ptr, ptr %6, align 8
  %115 = call i32 @Wlc_PrsStrCmp(ptr noundef %114, ptr noundef @.str.11)
  %116 = icmp ne i32 %115, 0
  br i1 %116, label %117, label %119

117:                                              ; preds = %113
  %118 = call i32 (ptr, ...) @printf(ptr noundef @.str.12)
  br label %119

119:                                              ; preds = %117, %113
  %120 = load ptr, ptr %6, align 8
  %121 = call i32 @Wlc_PrsStrCmp(ptr noundef %120, ptr noundef @.str.11)
  %122 = icmp ne i32 %121, 0
  br i1 %122, label %129, label %123

123:                                              ; preds = %119
  %124 = load ptr, ptr %6, align 8
  %125 = call i32 @Wlc_PrsStrCmp(ptr noundef %124, ptr noundef @.str.10)
  %126 = icmp ne i32 %125, 0
  br i1 %126, label %129, label %127

127:                                              ; preds = %123
  %128 = call i32 (ptr, ...) @printf(ptr noundef @.str.13)
  br label %129

129:                                              ; preds = %127, %123, %119
  %130 = load ptr, ptr %6, align 8
  %131 = getelementptr inbounds i8, ptr %130, i64 0
  %132 = load i8, ptr %131, align 1
  %133 = sext i8 %132 to i32
  %134 = call i32 (ptr, ...) @printf(ptr noundef @.str.14, i32 noundef %133)
  store i32 1, ptr %10, align 4
  br label %135

135:                                              ; preds = %168, %129
  %136 = load ptr, ptr %6, align 8
  %137 = load i32, ptr %10, align 4
  %138 = sext i32 %137 to i64
  %139 = getelementptr inbounds i8, ptr %136, i64 %138
  %140 = load i8, ptr %139, align 1
  %141 = icmp ne i8 %140, 0
  br i1 %141, label %142, label %171

142:                                              ; preds = %135
  %143 = load ptr, ptr %6, align 8
  %144 = load i32, ptr %10, align 4
  %145 = sext i32 %144 to i64
  %146 = getelementptr inbounds i8, ptr %143, i64 %145
  %147 = load i8, ptr %146, align 1
  %148 = sext i8 %147 to i32
  %149 = icmp ne i32 %148, 32
  br i1 %149, label %159, label %150

150:                                              ; preds = %142
  %151 = load ptr, ptr %6, align 8
  %152 = load i32, ptr %10, align 4
  %153 = sub nsw i32 %152, 1
  %154 = sext i32 %153 to i64
  %155 = getelementptr inbounds i8, ptr %151, i64 %154
  %156 = load i8, ptr %155, align 1
  %157 = sext i8 %156 to i32
  %158 = icmp ne i32 %157, 32
  br i1 %158, label %159, label %167

159:                                              ; preds = %150, %142
  %160 = load ptr, ptr %6, align 8
  %161 = load i32, ptr %10, align 4
  %162 = sext i32 %161 to i64
  %163 = getelementptr inbounds i8, ptr %160, i64 %162
  %164 = load i8, ptr %163, align 1
  %165 = sext i8 %164 to i32
  %166 = call i32 (ptr, ...) @printf(ptr noundef @.str.14, i32 noundef %165)
  br label %167

167:                                              ; preds = %159, %150
  br label %168

168:                                              ; preds = %167
  %169 = load i32, ptr %10, align 4
  %170 = add nsw i32 %169, 1
  store i32 %170, ptr %10, align 4
  br label %135, !llvm.loop !17

171:                                              ; preds = %135
  %172 = call i32 (ptr, ...) @printf(ptr noundef @.str.15)
  br label %173

173:                                              ; preds = %171
  %174 = load i32, ptr %9, align 4
  %175 = add nsw i32 %174, 1
  store i32 %175, ptr %9, align 4
  br label %95, !llvm.loop !18

176:                                              ; preds = %111
  br label %177

177:                                              ; preds = %176, %91
  store i32 1, ptr %2, align 4
  br label %178

178:                                              ; preds = %177, %43
  %179 = load i32, ptr %2, align 4
  ret i32 %179
}