; Function Attrs: nounwind uwtable
define range(i32 0, 2) i32 @Wlc_PrsPrepare(ptr noundef captures(none) %0) local_unnamed_addr #0 {
  %2 = getelementptr inbounds nuw i8, ptr %0, i64 16
  %3 = load ptr, ptr %2, align 8
  %4 = getelementptr inbounds nuw i8, ptr %0, i64 24
  br label %5

5:                                                ; preds = %45, %1
  %.044 = phi ptr [ %3, %1 ], [ %46, %45 ]
  %6 = load i8, ptr %.044, align 1
  switch i8 %6, label %45 [
    i8 0, label %47
    i8 10, label %7
  ]

7:                                                ; preds = %5
  %8 = load ptr, ptr %4, align 8
  %9 = load ptr, ptr %2, align 8
  %10 = ptrtoint ptr %.044 to i64
  %11 = ptrtoint ptr %9 to i64
  %12 = sub i64 %10, %11
  %13 = trunc i64 %12 to i32
  %14 = getelementptr inbounds nuw i8, ptr %8, i64 4
  %15 = load i32, ptr %14, align 4
  %16 = load i32, ptr %8, align 8
  %17 = icmp eq i32 %15, %16
  br i1 %17, label %18, label %.Vec_IntGrow.exit10_crit_edge.i

.Vec_IntGrow.exit10_crit_edge.i:                  ; preds = %7
  %.phi.trans.insert.i = getelementptr inbounds nuw i8, ptr %8, i64 8
  %.pre.i = load ptr, ptr %.phi.trans.insert.i, align 8
  br label %Vec_IntPush.exit

18:                                               ; preds = %7
  %19 = icmp slt i32 %15, 16
  br i1 %19, label %20, label %28

20:                                               ; preds = %18
  %21 = getelementptr inbounds nuw i8, ptr %8, i64 8
  %22 = load ptr, ptr %21, align 8
  %.not9.i.i = icmp eq ptr %22, null
  br i1 %.not9.i.i, label %25, label %23

23:                                               ; preds = %20
  %24 = tail call dereferenceable_or_null(64) ptr @realloc(ptr noundef nonnull %22, i64 noundef 64) #28
  br label %Vec_IntGrow.exit.i

25:                                               ; preds = %20
  %26 = tail call noalias dereferenceable_or_null(64) ptr @malloc(i64 noundef 64) #27
  br label %Vec_IntGrow.exit.i

Vec_IntGrow.exit.i:                               ; preds = %25, %23
  %27 = phi ptr [ %24, %23 ], [ %26, %25 ]
  store ptr %27, ptr %21, align 8
  store i32 16, ptr %8, align 8
  br label %Vec_IntPush.exit

28:                                               ; preds = %18
  %29 = shl nuw nsw i32 %15, 1
  %30 = getelementptr inbounds nuw i8, ptr %8, i64 8
  %31 = load ptr, ptr %30, align 8
  %.not9.i9.i = icmp eq ptr %31, null
  %32 = zext nneg i32 %29 to i64
  %33 = shl nuw nsw i64 %32, 2
  br i1 %.not9.i9.i, label %36, label %34

34:                                               ; preds = %28
  %35 = tail call ptr @realloc(ptr noundef nonnull %31, i64 noundef %33) #28
  br label %38

36:                                               ; preds = %28
  %37 = tail call noalias ptr @malloc(i64 noundef %33) #27
  br label %38

38:                                               ; preds = %36, %34
  %39 = phi ptr [ %35, %34 ], [ %37, %36 ]
  store ptr %39, ptr %30, align 8
  store i32 %29, ptr %8, align 8
  br label %Vec_IntPush.exit

Vec_IntPush.exit:                                 ; preds = %.Vec_IntGrow.exit10_crit_edge.i, %Vec_IntGrow.exit.i, %38
  %40 = phi ptr [ %.pre.i, %.Vec_IntGrow.exit10_crit_edge.i ], [ %39, %38 ], [ %27, %Vec_IntGrow.exit.i ]
  %41 = load i32, ptr %14, align 4
  %42 = add nsw i32 %41, 1
  store i32 %42, ptr %14, align 4
  %43 = sext i32 %41 to i64
  %44 = getelementptr inbounds i32, ptr %40, i64 %43
  store i32 %13, ptr %44, align 4
  br label %45

45:                                               ; preds = %5, %Vec_IntPush.exit
  %46 = getelementptr inbounds nuw i8, ptr %.044, i64 1
  br label %5, !llvm.loop !11

47:                                               ; preds = %5
  %48 = tail call i32 @Wlc_PrsRemoveComments(ptr noundef %0)
  %.not53 = icmp eq i32 %48, 0
  br i1 %.not53, label %.critedge, label %49

49:                                               ; preds = %47
  %50 = load ptr, ptr %2, align 8
  %51 = load i8, ptr %50, align 1
  %.not5464 = icmp eq i8 %51, 0
  br i1 %.not5464, label %.critedge, label %.lr.ph

.lr.ph:                                           ; preds = %49
  %52 = getelementptr inbounds nuw i8, ptr %0, i64 32
  br label %53

53:                                               ; preds = %.lr.ph, %97
  %54 = phi i8 [ %51, %.lr.ph ], [ %102, %97 ]
  %.04267 = phi ptr [ %50, %.lr.ph ], [ %101, %97 ]
  %.04366 = phi ptr [ %50, %.lr.ph ], [ %.1, %97 ]
  %.04565 = phi i1 [ true, %.lr.ph ], [ %.146.v, %97 ]
  %55 = icmp eq i8 %54, 59
  %or.cond = and i1 %.04565, %55
  br i1 %or.cond, label %56, label %97

56:                                               ; preds = %53
  store i8 0, ptr %.04267, align 1
  %57 = load ptr, ptr %52, align 8
  br label %58

58:                                               ; preds = %58, %56
  %.0.i = phi ptr [ %.04366, %56 ], [ %60, %58 ]
  %59 = load i8, ptr %.0.i, align 1
  %cond.i = icmp eq i8 %59, 32
  %60 = getelementptr inbounds nuw i8, ptr %.0.i, i64 1
  br i1 %cond.i, label %58, label %Wlc_PrsSkipSpaces.exit, !llvm.loop !12

Wlc_PrsSkipSpaces.exit:                           ; preds = %58
  %.val = load ptr, ptr %2, align 8
  %61 = ptrtoint ptr %.0.i to i64
  %62 = ptrtoint ptr %.val to i64
  %63 = sub i64 %61, %62
  %64 = trunc i64 %63 to i32
  %65 = getelementptr inbounds nuw i8, ptr %57, i64 4
  %66 = load i32, ptr %65, align 4
  %67 = load i32, ptr %57, align 8
  %68 = icmp eq i32 %66, %67
  br i1 %68, label %69, label %.Vec_IntGrow.exit10_crit_edge.i57

.Vec_IntGrow.exit10_crit_edge.i57:                ; preds = %Wlc_PrsSkipSpaces.exit
  %.phi.trans.insert.i58 = getelementptr inbounds nuw i8, ptr %57, i64 8
  %.pre.i59 = load ptr, ptr %.phi.trans.insert.i58, align 8
  br label %Vec_IntPush.exit63

69:                                               ; preds = %Wlc_PrsSkipSpaces.exit
  %70 = icmp slt i32 %66, 16
  br i1 %70, label %71, label %79

71:                                               ; preds = %69
  %72 = getelementptr inbounds nuw i8, ptr %57, i64 8
  %73 = load ptr, ptr %72, align 8
  %.not9.i.i61 = icmp eq ptr %73, null
  br i1 %.not9.i.i61, label %76, label %74

74:                                               ; preds = %71
  %75 = tail call dereferenceable_or_null(64) ptr @realloc(ptr noundef nonnull %73, i64 noundef 64) #28
  br label %Vec_IntGrow.exit.i62

76:                                               ; preds = %71
  %77 = tail call noalias dereferenceable_or_null(64) ptr @malloc(i64 noundef 64) #27
  br label %Vec_IntGrow.exit.i62

Vec_IntGrow.exit.i62:                             ; preds = %76, %74
  %78 = phi ptr [ %75, %74 ], [ %77, %76 ]
  store ptr %78, ptr %72, align 8
  store i32 16, ptr %57, align 8
  br label %Vec_IntPush.exit63

79:                                               ; preds = %69
  %80 = shl nuw nsw i32 %66, 1
  %81 = getelementptr inbounds nuw i8, ptr %57, i64 8
  %82 = load ptr, ptr %81, align 8
  %.not9.i9.i60 = icmp eq ptr %82, null
  %83 = zext nneg i32 %80 to i64
  %84 = shl nuw nsw i64 %83, 2
  br i1 %.not9.i9.i60, label %87, label %85

85:                                               ; preds = %79
  %86 = tail call ptr @realloc(ptr noundef nonnull %82, i64 noundef %84) #28
  br label %89

87:                                               ; preds = %79
  %88 = tail call noalias ptr @malloc(i64 noundef %84) #27
  br label %89

89:                                               ; preds = %87, %85
  %90 = phi ptr [ %86, %85 ], [ %88, %87 ]
  store ptr %90, ptr %81, align 8
  store i32 %80, ptr %57, align 8
  br label %Vec_IntPush.exit63

Vec_IntPush.exit63:                               ; preds = %.Vec_IntGrow.exit10_crit_edge.i57, %Vec_IntGrow.exit.i62, %89
  %91 = phi ptr [ %.pre.i59, %.Vec_IntGrow.exit10_crit_edge.i57 ], [ %90, %89 ], [ %78, %Vec_IntGrow.exit.i62 ]
  %92 = load i32, ptr %65, align 4
  %93 = add nsw i32 %92, 1
  store i32 %93, ptr %65, align 4
  %94 = sext i32 %92 to i64
  %95 = getelementptr inbounds i32, ptr %91, i64 %94
  store i32 %64, ptr %95, align 4
  %96 = getelementptr inbounds nuw i8, ptr %.04267, i64 1
  %.pre = load i8, ptr %.04267, align 1
  br label %97

97:                                               ; preds = %Vec_IntPush.exit63, %53
  %98 = phi i8 [ %.pre, %Vec_IntPush.exit63 ], [ %54, %53 ]
  %.1 = phi ptr [ %96, %Vec_IntPush.exit63 ], [ %.04366, %53 ]
  %99 = icmp ne i8 %98, 92
  %100 = icmp eq i8 %98, 32
  %.146.v = select i1 %.04565, i1 %99, i1 %100
  %101 = getelementptr inbounds nuw i8, ptr %.04267, i64 1
  %102 = load i8, ptr %101, align 1
  %.not54 = icmp eq i8 %102, 0
  br i1 %.not54, label %.critedge, label %53, !llvm.loop !13

.critedge:                                        ; preds = %97, %49, %47
  %.047 = phi i32 [ 0, %47 ], [ 1, %49 ], [ 1, %97 ]
  ret i32 %.047
}